target datalayout = "e-m:e-p270:32:32-p271:32:32-p272:64:64-i64:64-i128:128-f80:128-n8:16:32:64-S128"
target triple = "x86_64-pc-linux-gnu"

@.str = private unnamed_addr constant [26 x i8] c"Parameter '%s' is invalid\00", align 1
@.str.1 = private unnamed_addr constant [7 x i8] c"stream\00", align 1
@.str.15 = private unnamed_addr constant [4 x i8] c"buf\00", align 1
@.str.16 = private unnamed_addr constant [4 x i8] c"len\00", align 1

; Function Attrs: nounwind uwtable
define hidden zeroext i1 @SDL_PutAudioStreamData_REAL(ptr noundef %0, ptr noundef %1, i32 noundef %2) #0 {
  %4 = alloca i1, align 1
  %5 = alloca ptr, align 8
  %6 = alloca ptr, align 8
  %7 = alloca i32, align 4
  %8 = alloca i32, align 4
  %9 = alloca ptr, align 8
  %10 = alloca i32, align 4
  %11 = alloca i8, align 1
  store ptr %0, ptr %5, align 8
  store ptr %1, ptr %6, align 8
  store i32 %2, ptr %7, align 4
  %12 = load ptr, ptr %5, align 8
  %13 = icmp ne ptr %12, null
  br i1 %13, label %16, label %14

14:                                               ; preds = %3
  %15 = call zeroext i1 (ptr, ...) @SDL_SetError_REAL(ptr noundef @.str, ptr noundef @.str.1)
  store i1 %15, ptr %4, align 1
  br label %67

16:                                               ; preds = %3
  %17 = load ptr, ptr %6, align 8
  %18 = icmp ne ptr %17, null
  br i1 %18, label %21, label %19

19:                                               ; preds = %16
  %20 = call zeroext i1 (ptr, ...) @SDL_SetError_REAL(ptr noundef @.str, ptr noundef @.str.15)
  store i1 %20, ptr %4, align 1
  br label %67

21:                                               ; preds = %16
  %22 = load i32, ptr %7, align 4
  %23 = icmp slt i32 %22, 0
  br i1 %23, label %24, label %26

24:                                               ; preds = %21
  %25 = call zeroext i1 (ptr, ...) @SDL_SetError_REAL(ptr noundef @.str, ptr noundef @.str.16)
  store i1 %25, ptr %4, align 1
  br label %67

26:                                               ; preds = %21
  %27 = load i32, ptr %7, align 4
  %28 = icmp eq i32 %27, 0
  br i1 %28, label %29, label %30

29:                                               ; preds = %26
  store i1 true, ptr %4, align 1
  br label %67

30:                                               ; preds = %26
  br label %31

31:                                               ; preds = %30
  br label %32

32:                                               ; preds = %31
  br label %33

33:                                               ; preds = %32
  call void @llvm.lifetime.start.p0(i64 4, ptr %8) #7
  store i32 65536, ptr %8, align 4
  %34 = load i32, ptr %7, align 4
  %35 = icmp sge i32 %34, 65536
  br i1 %35, label %36, label %61

36:                                               ; preds = %33
  call void @llvm.lifetime.start.p0(i64 8, ptr %9) #7
  %37 = load i32, ptr %7, align 4
  %38 = sext i32 %37 to i64
  %39 = call noalias ptr @SDL_malloc_REAL(i64 noundef %38)
  store ptr %39, ptr %9, align 8
  %40 = load ptr, ptr %9, align 8
  %41 = icmp ne ptr %40, null
  br i1 %41, label %43, label %42

42:                                               ; preds = %36
  store i1 false, ptr %4, align 1
  store i32 1, ptr %10, align 4
  br label %60

43:                                               ; preds = %36
  %44 = load ptr, ptr %9, align 8
  %45 = load ptr, ptr %6, align 8
  %46 = load i32, ptr %7, align 4
  %47 = sext i32 %46 to i64
  call void @llvm.memcpy.p0.p0.i64(ptr align 1 %44, ptr align 1 %45, i64 %47, i1 false)
  call void @llvm.lifetime.start.p0(i64 1, ptr %11) #7
  %48 = load ptr, ptr %5, align 8
  %49 = load ptr, ptr %9, align 8
  %50 = load i32, ptr %7, align 4
  %51 = call zeroext i1 @PutAudioStreamBuffer(ptr noundef %48, ptr noundef %49, i32 noundef %50, ptr noundef @FreeAllocatedAudioBuffer, ptr noundef null)
  %52 = zext i1 %51 to i8
  store i8 %52, ptr %11, align 1
  %53 = load i8, ptr %11, align 1, !range !6, !noundef !7
  %54 = trunc i8 %53 to i1
  br i1 %54, label %57, label %55

55:                                               ; preds = %43
  %56 = load ptr, ptr %9, align 8
  call void @SDL_free_REAL(ptr noundef %56)
  br label %57

57:                                               ; preds = %55, %43
  %58 = load i8, ptr %11, align 1, !range !6, !noundef !7
  %59 = trunc i8 %58 to i1
  store i1 %59, ptr %4, align 1
  store i32 1, ptr %10, align 4
  call void @llvm.lifetime.end.p0(i64 1, ptr %11) #7
  br label %60

60:                                               ; preds = %57, %42
  call void @llvm.lifetime.end.p0(i64 8, ptr %9) #7
  br label %66

61:                                               ; preds = %33
  %62 = load ptr, ptr %5, align 8
  %63 = load ptr, ptr %6, align 8
  %64 = load i32, ptr %7, align 4
  %65 = call zeroext i1 @PutAudioStreamBuffer(ptr noundef %62, ptr noundef %63, i32 noundef %64, ptr noundef null, ptr noundef null)
  store i1 %65, ptr %4, align 1
  store i32 1, ptr %10, align 4
  br label %66

66:                                               ; preds = %61, %60
  call void @llvm.lifetime.end.p0(i64 4, ptr %8) #7
  br label %67

67:                                               ; preds = %66, %29, %24, %19, %14
  %68 = load i1, ptr %4, align 1
  ret i1 %68
}