; Function Attrs: nounwind uwtable
define hidden zeroext i1 @SDL_PutAudioStreamData_REAL(ptr noundef %0, ptr noundef %1, i32 noundef %2) local_unnamed_addr #2 {
  %.not = icmp eq ptr %0, null
  br i1 %.not, label %4, label %6

4:                                                ; preds = %3
  %5 = tail call zeroext i1 (ptr, ...) @SDL_SetError_REAL(ptr noundef nonnull @.str, ptr noundef nonnull @.str.1) #11
  br label %25

6:                                                ; preds = %3
  %.not23 = icmp eq ptr %1, null
  br i1 %.not23, label %7, label %9

7:                                                ; preds = %6
  %8 = tail call zeroext i1 (ptr, ...) @SDL_SetError_REAL(ptr noundef nonnull @.str, ptr noundef nonnull @.str.15) #11
  br label %25

9:                                                ; preds = %6
  %10 = icmp slt i32 %2, 0
  br i1 %10, label %11, label %13

11:                                               ; preds = %9
  %12 = tail call zeroext i1 (ptr, ...) @SDL_SetError_REAL(ptr noundef nonnull @.str, ptr noundef nonnull @.str.16) #11
  br label %25

13:                                               ; preds = %9
  %14 = icmp eq i32 %2, 0
  br i1 %14, label %25, label %15

15:                                               ; preds = %13
  %16 = icmp samesign ugt i32 %2, 65535
  br i1 %16, label %17, label %23

17:                                               ; preds = %15
  %18 = zext nneg i32 %2 to i64
  %19 = tail call noalias ptr @SDL_malloc_REAL(i64 noundef %18) #11
  %.not24 = icmp eq ptr %19, null
  br i1 %.not24, label %25, label %20

20:                                               ; preds = %17
  tail call void @llvm.memcpy.p0.p0.i64(ptr nonnull align 1 %19, ptr nonnull align 1 %1, i64 %18, i1 false)
  %21 = tail call fastcc zeroext i1 @PutAudioStreamBuffer(ptr noundef %0, ptr noundef %19, i32 noundef %2, ptr noundef nonnull @FreeAllocatedAudioBuffer)
  br i1 %21, label %25, label %22

22:                                               ; preds = %20
  tail call void @SDL_free_REAL(ptr noundef nonnull %19) #11
  br label %25

23:                                               ; preds = %15
  %24 = tail call fastcc zeroext i1 @PutAudioStreamBuffer(ptr noundef %0, ptr noundef %1, i32 noundef %2, ptr noundef null)
  br label %25

25:                                               ; preds = %23, %20, %22, %17, %13, %11, %7, %4
  %.0 = phi i1 [ %12, %11 ], [ %8, %7 ], [ %5, %4 ], [ true, %13 ], [ %24, %23 ], [ false, %17 ], [ false, %22 ], [ true, %20 ]
  ret i1 %.0
}